target datalayout = "e-m:e-p270:32:32-p271:32:32-p272:64:64-i64:64-i128:128-f80:128-n8:16:32:64-S128"
target triple = "x86_64-pc-linux-gnu"

%struct.engine_st = type { ptr, ptr, ptr, ptr, ptr, ptr, ptr, ptr, ptr, ptr, ptr, ptr, ptr, ptr, ptr, ptr, ptr, ptr, ptr, i32, %struct.CRYPTO_REF_COUNT, i32, %struct.crypto_ex_data_st, ptr, ptr, ptr, ptr, ptr }
%struct.CRYPTO_REF_COUNT = type { i32 }
%struct.crypto_ex_data_st = type { ptr, ptr }
%struct.ENGINE_FIND_STR = type { ptr, ptr, ptr, i32 }

@pkey_asn1_meth_table = internal global ptr null, align 8
@.str = private unnamed_addr constant [37 x i8] c"../openssl/crypto/engine/tb_asnmth.c\00", align 1
@engine_lock_init = external global i32, align 4
@do_engine_lock_init_ossl_ret_ = external global i32, align 4
@__func__.ENGINE_pkey_asn1_find_str = private unnamed_addr constant [26 x i8] c"ENGINE_pkey_asn1_find_str\00", align 1
@global_engine_lock = external global ptr, align 8

; Function Attrs: inlinehint nounwind uwtable
define internal i32 @CRYPTO_UP_REF(ptr noundef %0, ptr noundef %1) #4 {
  %3 = alloca ptr, align 8
  %4 = alloca ptr, align 8
  %5 = alloca i32, align 4
  %6 = alloca i32, align 4
  store ptr %0, ptr %3, align 8, !tbaa !27
  store ptr %1, ptr %4, align 8, !tbaa !23
  %7 = load ptr, ptr %3, align 8, !tbaa !27
  %8 = getelementptr inbounds nuw %struct.CRYPTO_REF_COUNT, ptr %7, i32 0, i32 0
  store i32 1, ptr %5, align 4, !tbaa !22
  %9 = load i32, ptr %5, align 4
  %10 = atomicrmw add ptr %8, i32 %9 monotonic, align 4
  store i32 %10, ptr %6, align 4
  %11 = load i32, ptr %6, align 4, !tbaa !22
  %12 = add nsw i32 %11, 1
  %13 = load ptr, ptr %4, align 8, !tbaa !23
  store i32 %12, ptr %13, align 4, !tbaa !22
  ret i32 1
}

; Function Attrs: nounwind uwtable
define ptr @ENGINE_pkey_asn1_find_str(ptr noundef %0, ptr noundef %1, i32 noundef %2) #0 {
  %4 = alloca ptr, align 8
  %5 = alloca ptr, align 8
  %6 = alloca ptr, align 8
  %7 = alloca i32, align 4
  %8 = alloca %struct.ENGINE_FIND_STR, align 8
  %9 = alloca i32, align 4
  %10 = alloca i32, align 4
  store ptr %0, ptr %5, align 8, !tbaa !36
  store ptr %1, ptr %6, align 8, !tbaa !31
  store i32 %2, ptr %7, align 4, !tbaa !22
  call void @llvm.lifetime.start.p0(i64 32, ptr %8) #5
  %11 = getelementptr inbounds nuw %struct.ENGINE_FIND_STR, ptr %8, i32 0, i32 0
  store ptr null, ptr %11, align 8, !tbaa !38
  %12 = getelementptr inbounds nuw %struct.ENGINE_FIND_STR, ptr %8, i32 0, i32 1
  store ptr null, ptr %12, align 8, !tbaa !40
  %13 = load ptr, ptr %6, align 8, !tbaa !31
  %14 = getelementptr inbounds nuw %struct.ENGINE_FIND_STR, ptr %8, i32 0, i32 2
  store ptr %13, ptr %14, align 8, !tbaa !41
  %15 = load i32, ptr %7, align 4, !tbaa !22
  %16 = getelementptr inbounds nuw %struct.ENGINE_FIND_STR, ptr %8, i32 0, i32 3
  store i32 %15, ptr %16, align 8, !tbaa !42
  %17 = call i32 @CRYPTO_THREAD_run_once(ptr noundef @engine_lock_init, ptr noundef @do_engine_lock_init_ossl_)
  %18 = icmp ne i32 %17, 0
  br i1 %18, label %19, label %22

19:                                               ; preds = %3
  %20 = load i32, ptr @do_engine_lock_init_ossl_ret_, align 4, !tbaa !22
  %21 = icmp ne i32 %20, 0
  br i1 %21, label %24, label %23

22:                                               ; preds = %3
  br i1 false, label %24, label %23

23:                                               ; preds = %22, %19
  call void @ERR_new()
  call void @ERR_set_debug(ptr noundef @.str, i32 noundef 200, ptr noundef @__func__.ENGINE_pkey_asn1_find_str)
  call void (i32, i32, ptr, ...) @ERR_set_error(i32 noundef 38, i32 noundef 524303, ptr noundef null)
  store ptr null, ptr %4, align 8
  store i32 1, ptr %9, align 4
  br label %55

24:                                               ; preds = %22, %19
  %25 = load ptr, ptr @global_engine_lock, align 8, !tbaa !27
  %26 = call i32 @CRYPTO_THREAD_read_lock(ptr noundef %25)
  %27 = icmp ne i32 %26, 0
  br i1 %27, label %29, label %28

28:                                               ; preds = %24
  store ptr null, ptr %4, align 8
  store i32 1, ptr %9, align 4
  br label %55

29:                                               ; preds = %24
  %30 = load ptr, ptr @pkey_asn1_meth_table, align 8, !tbaa !43
  call void @engine_table_doall(ptr noundef %30, ptr noundef @look_str_cb, ptr noundef %8)
  %31 = getelementptr inbounds nuw %struct.ENGINE_FIND_STR, ptr %8, i32 0, i32 0
  %32 = load ptr, ptr %31, align 8, !tbaa !38
  %33 = icmp ne ptr %32, null
  br i1 %33, label %34, label %47

34:                                               ; preds = %29
  call void @llvm.lifetime.start.p0(i64 4, ptr %10) #5
  %35 = getelementptr inbounds nuw %struct.ENGINE_FIND_STR, ptr %8, i32 0, i32 0
  %36 = load ptr, ptr %35, align 8, !tbaa !38
  %37 = getelementptr inbounds nuw %struct.engine_st, ptr %36, i32 0, i32 20
  %38 = call i32 @CRYPTO_UP_REF(ptr noundef %37, ptr noundef %10)
  %39 = icmp ne i32 %38, 0
  br i1 %39, label %43, label %40

40:                                               ; preds = %34
  %41 = load ptr, ptr @global_engine_lock, align 8, !tbaa !27
  %42 = call i32 @CRYPTO_THREAD_unlock(ptr noundef %41)
  call void @ERR_new()
  call void @ERR_set_debug(ptr noundef @.str, i32 noundef 213, ptr noundef @__func__.ENGINE_pkey_asn1_find_str)
  call void (i32, i32, ptr, ...) @ERR_set_error(i32 noundef 38, i32 noundef 524303, ptr noundef null)
  store ptr null, ptr %4, align 8
  store i32 1, ptr %9, align 4
  br label %44

43:                                               ; preds = %34
  store i32 0, ptr %9, align 4
  br label %44

44:                                               ; preds = %43, %40
  call void @llvm.lifetime.end.p0(i64 4, ptr %10) #5
  %45 = load i32, ptr %9, align 4
  switch i32 %45, label %55 [
    i32 0, label %46
  ]

46:                                               ; preds = %44
  br label %47

47:                                               ; preds = %46, %29
  %48 = getelementptr inbounds nuw %struct.ENGINE_FIND_STR, ptr %8, i32 0, i32 0
  %49 = load ptr, ptr %48, align 8, !tbaa !38
  %50 = load ptr, ptr %5, align 8, !tbaa !36
  store ptr %49, ptr %50, align 8, !tbaa !3
  %51 = load ptr, ptr @global_engine_lock, align 8, !tbaa !27
  %52 = call i32 @CRYPTO_THREAD_unlock(ptr noundef %51)
  %53 = getelementptr inbounds nuw %struct.ENGINE_FIND_STR, ptr %8, i32 0, i32 1
  %54 = load ptr, ptr %53, align 8, !tbaa !40
  store ptr %54, ptr %4, align 8
  store i32 1, ptr %9, align 4
  br label %55

55:                                               ; preds = %47, %44, %28, %23
  call void @llvm.lifetime.end.p0(i64 32, ptr %8) #5
  %56 = load ptr, ptr %4, align 8
  ret ptr %56
}