; Function Attrs: nounwind uwtable
define ptr @ENGINE_pkey_asn1_find_str(ptr noundef writeonly captures(none) %0, ptr noundef %1, i32 noundef %2) local_unnamed_addr #0 {
  %4 = alloca %struct.ENGINE_FIND_STR, align 8
  call void @llvm.lifetime.start.p0(i64 32, ptr nonnull %4) #7
  %5 = getelementptr inbounds nuw i8, ptr %4, i64 8
  %6 = getelementptr inbounds nuw i8, ptr %4, i64 16
  call void @llvm.memset.p0.i64(ptr noundef nonnull align 8 dereferenceable(16) %4, i8 0, i64 16, i1 false)
  store ptr %1, ptr %6, align 8, !tbaa !33
  %7 = getelementptr inbounds nuw i8, ptr %4, i64 24
  store i32 %2, ptr %7, align 8, !tbaa !35
  %8 = tail call i32 @CRYPTO_THREAD_run_once(ptr noundef nonnull @engine_lock_init, ptr noundef nonnull @do_engine_lock_init_ossl_) #7
  %9 = icmp ne i32 %8, 0
  %10 = load i32, ptr @do_engine_lock_init_ossl_ret_, align 4
  %11 = icmp ne i32 %10, 0
  %or.cond = select i1 %9, i1 %11, i1 false
  br i1 %or.cond, label %13, label %12

12:                                               ; preds = %3
  tail call void @ERR_new() #7
  tail call void @ERR_set_debug(ptr noundef nonnull @.str, i32 noundef 200, ptr noundef nonnull @__func__.ENGINE_pkey_asn1_find_str) #7
  tail call void (i32, i32, ptr, ...) @ERR_set_error(i32 noundef 38, i32 noundef 524303, ptr noundef null) #7
  br label %26

13:                                               ; preds = %3
  %14 = load ptr, ptr @global_engine_lock, align 8, !tbaa !36
  %15 = tail call i32 @CRYPTO_THREAD_read_lock(ptr noundef %14) #7
  %.not = icmp eq i32 %15, 0
  br i1 %.not, label %26, label %16

16:                                               ; preds = %13
  %17 = load ptr, ptr @pkey_asn1_meth_table, align 8, !tbaa !37
  call void @engine_table_doall(ptr noundef %17, ptr noundef nonnull @look_str_cb, ptr noundef nonnull %4) #7
  %18 = load ptr, ptr %4, align 8, !tbaa !39
  %.not6 = icmp eq ptr %18, null
  br i1 %.not6, label %22, label %19

19:                                               ; preds = %16
  %20 = getelementptr inbounds nuw i8, ptr %18, i64 156
  %21 = atomicrmw add ptr %20, i32 1 monotonic, align 4
  br label %22

22:                                               ; preds = %19, %16
  store ptr %18, ptr %0, align 8, !tbaa !40
  %23 = load ptr, ptr @global_engine_lock, align 8, !tbaa !36
  %24 = call i32 @CRYPTO_THREAD_unlock(ptr noundef %23) #7
  %25 = load ptr, ptr %5, align 8, !tbaa !41
  br label %26

26:                                               ; preds = %13, %22, %12
  %.05 = phi ptr [ %25, %22 ], [ null, %12 ], [ null, %13 ]
  call void @llvm.lifetime.end.p0(i64 32, ptr nonnull %4) #7
  ret ptr %.05
}